; Function Attrs: mustprogress nofree norecurse nosync nounwind willreturn memory(none) uwtable
define dso_local noundef zeroext i1 @_ZN4llvm3X867isMOVSSEj(i32 noundef %0) local_unnamed_addr #0 {
  %switch.tableidx = add i32 %0, -2659
  %2 = icmp ult i32 %switch.tableidx, 5
  %switch.cast = trunc i32 %switch.tableidx to i5
  %switch.downshift = lshr i5 -5, %switch.cast
  %switch.masked = trunc i5 %switch.downshift to i1
  %.0 = select i1 %2, i1 %switch.masked, i1 false
  ret i1 %.0
}